(dp0
(I100
I292
tp1
(I105
I21
tp2
s(I481
I292
tp3
(I75
I21
tp4
s(I541
I331
tp5
(I70
I24
tp6
s(I637
I142
tp7
(I60
I9
tp8
s(I602
I340
tp9
(I65
I24
tp10
s(I639
I340
tp11
(I60
I24
tp12
s(I360
I58
tp13
(I85
I3
tp14
s(I230
I317
tp15
(I95
I24
tp16
s(I418
I171
tp17
(I80
I12
tp18
s(I420
I206
tp19
(I80
I15
tp20
s(I348
I277
tp21
(I85
I21
tp22
s(I638
I188
tp23
(I60
I12
tp24
s(I356
I204
tp25
(I85
I15
tp26
s(I50
I392
tp27
(I110
I27
tp28
s(I637
I229
tp29
(I60
I15
tp30
s(I102
I133
tp31
(I105
I9
tp32
s(I425
I91
tp33
(I80
I6
tp34
s(I638
I99
tp35
(I60
I3
tp36
s(I614
I221
tp37
(I65
I15
tp38
s(I356
I232
tp39
(I85
I18
tp40
s(I40
I214
tp41
(I110
I15
tp42
s(I173
I100
tp43
(I100
I6
tp44
s(I542
I214
tp45
(I70
I15
tp46
s(I610
I256
tp47
(I65
I18
tp48
s(I170
I27
tp49
(I100
I0
tp50
s(I478
I208
tp51
(I75
I15
tp52
s(I639
I20
tp53
(I60
I0
tp54
s(I424
I91
tp55
(I80
I6
tp56
s(I635
I92
tp57
(I60
I6
tp58
s(I172
I21
tp59
(I100
I0
tp60
s(I637
I232
tp61
(I60
I15
tp62
s(I42
I103
tp63
(I110
I6
tp64
s(I45
I74
tp65
(I110
I3
tp66
s(I108
I327
tp67
(I105
I24
tp68
s(I46
I178
tp69
(I110
I12
tp70
s(I41
I214
tp71
(I110
I15
tp72
s(I347
I358
tp73
(I85
I27
tp74
s(I491
I59
tp75
(I75
I3
tp76
s(I233
I103
tp77
(I95
I6
tp78
s(I46
I214
tp79
(I110
I15
tp80
s(I596
I397
tp81
(I65
I27
tp82
s(I172
I122
tp83
(I100
I9
tp84
s(I426
I133
tp85
(I80
I9
tp86
s(I535
I330
tp87
(I70
I24
tp88
s(I559
I59
tp89
(I70
I3
tp90
s(I361
I21
tp91
(I85
I0
tp92
s(I428
I9
tp93
(I80
I0
tp94
s(I538
I291
tp95
(I70
I21
tp96
s(I428
I4
tp97
(I80
I0
tp98
s(I540
I216
tp99
(I70
I15
tp100
s(I488
I163
tp101
(I75
I12
tp102
s(I470
I322
tp103
(I75
I24
tp104
s(I168
I322
tp105
(I100
I24
tp106
s(I495
I25
tp107
(I75
I0
tp108
s(I297
I53
tp109
(I90
I3
tp110
s(I296
I128
tp111
(I90
I9
tp112
s(I606
I296
tp113
(I65
I21
tp114
s(I109
I142
tp115
(I105
I9
tp116
s(I174
I207
tp117
(I100
I15
tp118
s(I478
I178
tp119
(I75
I12
tp120
s(I358
I175
tp121
(I85
I12
tp122
s(I48
I332
tp123
(I110
I24
tp124
s(I490
I127
tp125
(I75
I9
tp126
s(I47
I59
tp127
(I110
I3
tp128
s(I297
I91
tp129
(I90
I6
tp130
s(I42
I241
tp131
(I110
I18
tp132
s(I172
I364
tp133
(I100
I27
tp134
s(I296
I53
tp135
(I90
I3
tp136
s(I613
I184
tp137
(I65
I12
tp138
s(I636
I291
tp139
(I60
I21
tp140
s(I487
I17
tp141
(I75
I0
tp142
s(I230
I283
tp143
(I95
I21
tp144
s(I638
I344
tp145
(I60
I24
tp146
s(I105
I71
tp147
(I105
I3
tp148
s(I47
I183
tp149
(I110
I12
tp150
s(I109
I57
tp151
(I105
I3
tp152
s(I555
I5
tp153
(I70
I0
tp154
s(I480
I107
tp155
(I75
I6
tp156
s(I348
I284
tp157
(I85
I21
tp158
s(I365
I56
tp159
(I85
I3
tp160
s(I106
I98
tp161
(I105
I6
tp162
s(I46
I298
tp163
(I110
I21
tp164
s(I104
I290
tp165
(I105
I21
tp166
s(I478
I181
tp167
(I75
I12
tp168
s(I231
I205
tp169
(I95
I15
tp170
s(I44
I337
tp171
(I110
I24
tp172
s(I358
I205
tp173
(I85
I15
tp174
s(I555
I143
tp175
(I70
I9
tp176
s(I290
I201
tp177
(I90
I15
tp178
s(I560
I9
tp179
(I70
I0
tp180
s(I428
I71
tp181
(I80
I3
tp182
s(I533
I375
tp183
(I70
I27
tp184
s(I366
I6
tp185
(I85
I0
tp186
s(I108
I325
tp187
(I105
I24
tp188
s(I228
I311
tp189
(I95
I24
tp190
s(I532
I326
tp191
(I70
I24
tp192
s(I483
I71
tp193
(I75
I3
tp194
s(I639
I394
tp195
(I60
I27
tp196
s(I636
I197
tp197
(I60
I12
tp198
s(I355
I67
tp199
(I85
I3
tp200
s(I170
I241
tp201
(I100
I18
tp202
s(I293
I235
tp203
(I90
I18
tp204
s(I637
I62
tp205
(I60
I3
tp206
s(I49
I395
tp207
(I110
I27
tp208
s(I227
I363
tp209
(I95
I27
tp210
s(I637
I264
tp211
(I60
I18
tp212
s(I430
I27
tp213
(I80
I0
tp214
s(I299
I119
tp215
(I90
I9
tp216
s(I420
I172
tp217
(I80
I12
tp218
s(I291
I316
tp219
(I90
I24
tp220
s(I417
I285
tp221
(I80
I21
tp222
s(I605
I388
tp223
(I65
I27
tp224
s(I106
I291
tp225
(I105
I21
tp226
s(I357
I104
tp227
(I85
I6
tp228
s(I488
I174
tp229
(I75
I12
tp230
s(I351
I230
tp231
(I85
I18
tp232
s(I477
I365
tp233
(I75
I27
tp234
s(I615
I135
tp235
(I65
I9
tp236
s(I177
I67
tp237
(I100
I3
tp238
s(I558
I15
tp239
(I70
I0
tp240
s(I601
I340
tp241
(I65
I24
tp242
s(I108
I144
tp243
(I105
I9
tp244
s(I495
I5
tp245
(I75
I0
tp246
s(I426
I28
tp247
(I80
I0
tp248
s(I231
I2
tp249
(I95
I0
tp250
s(I639
I28
tp251
(I60
I0
tp252
s(I537
I331
tp253
(I70
I24
tp254
s(I44
I333
tp255
(I110
I24
tp256
s(I174
I25
tp257
(I100
I0
tp258
s(I112
I22
tp259
(I105
I0
tp260
s(I228
I316
tp261
(I95
I24
tp262
s(I638
I191
tp263
(I60
I12
tp264
s(I113
I105
tp265
(I105
I6
tp266
s(I638
I117
tp267
(I60
I6
tp268
s(I422
I134
tp269
(I80
I9
tp270
s(I231
I204
tp271
(I95
I15
tp272
s(I638
I148
tp273
(I60
I9
tp274
s(I637
I319
tp275
(I60
I21
tp276
s(I107
I90
tp277
(I105
I6
tp278
s(I296
I129
tp279
(I90
I9
tp280
s(I418
I175
tp281
(I80
I12
tp282
s(I354
I195
tp283
(I85
I15
tp284
s(I351
I203
tp285
(I85
I15
tp286
s(I422
I169
tp287
(I80
I12
tp288
s(I473
I287
tp289
(I75
I21
tp290
s(I110
I51
tp291
(I105
I3
tp292
s(I299
I26
tp293
(I90
I0
tp294
s(I637
I352
tp295
(I60
I24
tp296
s(I106
I327
tp297
(I105
I24
tp298
s(I176
I53
tp299
(I100
I3
tp300
s(I237
I9
tp301
(I95
I0
tp302
s(I174
I169
tp303
(I100
I12
tp304
s(I625
I63
tp305
(I65
I3
tp306
s(I298
I99
tp307
(I90
I6
tp308
s(I412
I358
tp309
(I80
I27
tp310
s(I620
I67
tp311
(I65
I3
tp312
s(I545
I247
tp313
(I70
I18
tp314
s(I106
I106
tp315
(I105
I6
tp316
s(I358
I21
tp317
(I85
I0
tp318
s(I639
I59
tp319
(I60
I3
tp320
s(I295
I133
tp321
(I90
I9
tp322
s(I368
I21
tp323
(I85
I0
tp324
s(I417
I205
tp325
(I80
I15
tp326
s(I352
I165
tp327
(I85
I12
tp328
s(I637
I351
tp329
(I60
I24
tp330
s.